target datalayout = "e-m:e-p270:32:32-p271:32:32-p272:64:64-i64:64-i128:128-f80:128-n8:16:32:64-S128"
target triple = "x86_64-pc-linux-gnu"

%struct._zval_struct = type { %union._zend_value, %union.anon, %union.anon.2 }
%union._zend_value = type { i64 }
%union.anon = type { i32 }
%union.anon.2 = type { i32 }
%struct._zend_executor_globals = type { %struct._zval_struct, %struct._zval_struct, [32 x ptr], ptr, ptr, %struct._zend_array, %struct._zend_array, ptr, i32, i32, ptr, ptr, ptr, ptr, ptr, ptr, i64, ptr, ptr, i32, i32, i64, i32, i32, i32, i8, i8, %struct.zend_atomic_bool_s, %struct.zend_atomic_bool_s, ptr, i64, ptr, ptr, %struct._zend_array, %struct._zend_array, i32, i8, %struct._zval_struct, %struct._zval_struct, %struct._zend_stack, %struct._zend_stack, %struct._zend_stack, ptr, i32, i32, i64, ptr, ptr, ptr, %struct._zend_objects_store, ptr, ptr, ptr, [3 x %struct._zend_op], ptr, i8, i8, i64, i32, i32, ptr, [16 x %struct._HashTableIterator], ptr, %union._zend_function, %struct._zend_op, %struct._zend_array, i64, %struct.zend_get_gc_buffer, ptr, ptr, ptr, i64, i8, i32, ptr, ptr, i64, %struct._zend_call_stack, i64, i64, [6 x ptr] }
%struct.zend_atomic_bool_s = type { i8 }
%struct._zend_stack = type { i32, i32, i32, ptr }
%struct._zend_objects_store = type { ptr, i32, i32, i32 }
%struct._HashTableIterator = type { ptr, i32, i32 }
%union._zend_function = type { %struct._zend_op_array }
%struct._zend_op_array = type { i8, [3 x i8], i32, ptr, ptr, ptr, i32, i32, ptr, ptr, ptr, ptr, i32, i32, i32, i32, ptr, ptr, ptr, ptr, ptr, i32, i32, ptr, ptr, ptr, i32, i32, i32, i32, ptr, ptr, [6 x ptr] }
%struct._zend_op = type { ptr, %union._znode_op, %union._znode_op, %union._znode_op, i32, i32, i8, i8, i8, i8 }
%union._znode_op = type { i32 }
%struct._zend_array = type { %struct._zend_refcounted_h, %union.anon.4, i32, %union.anon.6, i32, i32, i32, i32, i64, ptr }
%struct._zend_refcounted_h = type { i32, %union.anon.3 }
%union.anon.3 = type { i32 }
%union.anon.4 = type { i32 }
%union.anon.6 = type { ptr }
%struct.zend_get_gc_buffer = type { ptr, ptr, ptr }
%struct._zend_call_stack = type { ptr, i64 }
%struct.itimerval = type { %struct.timeval, %struct.timeval }
%struct.timeval = type { i64, i64 }

@executor_globals = external global %struct._zend_executor_globals, align 8

; Function Attrs: nounwind uwtable
define void @zend_unset_timeout() #0 {
  %1 = alloca ptr, align 8
  %2 = alloca i8, align 1
  %3 = alloca %struct.itimerval, align 8
  %4 = load i64, ptr getelementptr inbounds (%struct._zend_executor_globals, ptr @executor_globals, i32 0, i32 45), align 8
  %5 = icmp ne i64 %4, 0
  br i1 %5, label %6, label %16

6:                                                ; preds = %0
  %7 = getelementptr inbounds %struct.itimerval, ptr %3, i32 0, i32 0
  %8 = getelementptr inbounds %struct.timeval, ptr %7, i32 0, i32 1
  store i64 0, ptr %8, align 8
  %9 = getelementptr inbounds %struct.itimerval, ptr %3, i32 0, i32 0
  %10 = getelementptr inbounds %struct.timeval, ptr %9, i32 0, i32 0
  store i64 0, ptr %10, align 8
  %11 = getelementptr inbounds %struct.itimerval, ptr %3, i32 0, i32 1
  %12 = getelementptr inbounds %struct.timeval, ptr %11, i32 0, i32 1
  store i64 0, ptr %12, align 8
  %13 = getelementptr inbounds %struct.itimerval, ptr %3, i32 0, i32 1
  %14 = getelementptr inbounds %struct.timeval, ptr %13, i32 0, i32 0
  store i64 0, ptr %14, align 8
  %15 = call i32 @setitimer(i32 noundef 2, ptr noundef %3, ptr noundef null) #14
  br label %16

16:                                               ; preds = %6, %0
  store ptr getelementptr inbounds (%struct._zend_executor_globals, ptr @executor_globals, i32 0, i32 28), ptr %1, align 8
  store i8 0, ptr %2, align 1
  fence seq_cst
  %17 = load i8, ptr %2, align 1
  %18 = trunc i8 %17 to i1
  %19 = zext i1 %18 to i8
  %20 = load ptr, ptr %1, align 8
  store volatile i8 %19, ptr %20, align 1
  fence seq_cst
  ret void
}