; Function Attrs: nofree nounwind uwtable
define void @zend_unset_timeout() local_unnamed_addr #13 {
  %1 = alloca %struct.itimerval, align 8
  %2 = load i64, ptr getelementptr inbounds (%struct._zend_executor_globals, ptr @executor_globals, i64 0, i32 45), align 8
  %.not = icmp eq i64 %2, 0
  br i1 %.not, label %5, label %3

3:                                                ; preds = %0
  call void @llvm.memset.p0.i64(ptr noundef nonnull align 8 dereferenceable(32) %1, i8 0, i64 32, i1 false)
  %4 = call i32 @setitimer(i32 noundef 2, ptr noundef nonnull %1, ptr noundef null) #24
  br label %5

5:                                                ; preds = %3, %0
  fence seq_cst
  store volatile i8 0, ptr getelementptr inbounds (%struct._zend_executor_globals, ptr @executor_globals, i64 0, i32 28), align 1
  fence seq_cst
  ret void
}